; Function Attrs: nofree norecurse nosync nounwind memory(readwrite, inaccessiblemem: none) uwtable
define void @SUNDlsMat_DenseCopy(ptr noundef readonly captures(none) %0, ptr noundef readonly captures(none) %1) local_unnamed_addr #0 {
  %3 = getelementptr inbounds nuw i8, ptr %0, i64 72
  %4 = load ptr, ptr %3, align 8, !tbaa !3
  %5 = getelementptr inbounds nuw i8, ptr %1, i64 72
  %6 = load ptr, ptr %5, align 8, !tbaa !3
  %7 = getelementptr inbounds nuw i8, ptr %0, i64 8
  %8 = load i64, ptr %7, align 8, !tbaa !12
  %9 = getelementptr inbounds nuw i8, ptr %0, i64 16
  %10 = load i64, ptr %9, align 8, !tbaa !13
  %11 = icmp sgt i64 %10, 0
  %12 = icmp sgt i64 %8, 0
  %or.cond.i = and i1 %12, %11
  br i1 %or.cond.i, label %.lr.ph.us.i, label %SUNDlsMat_denseCopy.exit

.lr.ph.us.i:                                      ; preds = %2, %._crit_edge.us.i
  %.01315.us.i = phi i64 [ %22, %._crit_edge.us.i ], [ 0, %2 ]
  %13 = getelementptr inbounds nuw ptr, ptr %4, i64 %.01315.us.i
  %14 = load ptr, ptr %13, align 8, !tbaa !14
  %15 = getelementptr inbounds nuw ptr, ptr %6, i64 %.01315.us.i
  %16 = load ptr, ptr %15, align 8, !tbaa !14
  br label %17

17:                                               ; preds = %17, %.lr.ph.us.i
  %.014.us.i = phi i64 [ 0, %.lr.ph.us.i ], [ %21, %17 ]
  %18 = getelementptr inbounds nuw double, ptr %14, i64 %.014.us.i
  %19 = load double, ptr %18, align 8, !tbaa !15
  %20 = getelementptr inbounds nuw double, ptr %16, i64 %.014.us.i
  store double %19, ptr %20, align 8, !tbaa !15
  %21 = add nuw nsw i64 %.014.us.i, 1
  %exitcond.not.i = icmp eq i64 %21, %8
  br i1 %exitcond.not.i, label %._crit_edge.us.i, label %17

._crit_edge.us.i:                                 ; preds = %17
  %22 = add nuw nsw i64 %.01315.us.i, 1
  %exitcond20.not.i = icmp eq i64 %22, %10
  br i1 %exitcond20.not.i, label %SUNDlsMat_denseCopy.exit, label %.lr.ph.us.i

SUNDlsMat_denseCopy.exit:                         ; preds = %._crit_edge.us.i, %2
  ret void
}